target datalayout = "e-m:e-p270:32:32-p271:32:32-p272:64:64-i64:64-i128:128-f80:128-n8:16:32:64-S128"
target triple = "x86_64-pc-linux-gnu"

%struct.evp_keymgmt_st = type { i32, i32, i32, ptr, ptr, ptr, %struct.CRYPTO_REF_COUNT, ptr, ptr, ptr, ptr, ptr, ptr, ptr, ptr, ptr, ptr, ptr, ptr, ptr, ptr, ptr, ptr, ptr, ptr, ptr, ptr, ptr, ptr, ptr, ptr, ptr, ptr }
%struct.CRYPTO_REF_COUNT = type { i32 }

; Function Attrs: nounwind uwtable
define i32 @evp_keymgmt_has_load(ptr noundef %0) #0 {
  %2 = alloca ptr, align 8
  store ptr %0, ptr %2, align 8, !tbaa !18
  %3 = load ptr, ptr %2, align 8, !tbaa !18
  %4 = icmp ne ptr %3, null
  br i1 %4, label %5, label %10

5:                                                ; preds = %1
  %6 = load ptr, ptr %2, align 8, !tbaa !18
  %7 = getelementptr inbounds nuw %struct.evp_keymgmt_st, ptr %6, i32 0, i32 21
  %8 = load ptr, ptr %7, align 8, !tbaa !38
  %9 = icmp ne ptr %8, null
  br label %10

10:                                               ; preds = %5, %1
  %11 = phi i1 [ false, %1 ], [ %9, %5 ]
  %12 = zext i1 %11 to i32
  ret i32 %12
}

; Function Attrs: nounwind uwtable
define ptr @evp_keymgmt_load(ptr noundef %0, ptr noundef %1, i64 noundef %2) #0 {
  %4 = alloca ptr, align 8
  %5 = alloca ptr, align 8
  %6 = alloca ptr, align 8
  %7 = alloca i64, align 8
  store ptr %0, ptr %5, align 8, !tbaa !18
  store ptr %1, ptr %6, align 8, !tbaa !58
  store i64 %2, ptr %7, align 8, !tbaa !65
  %8 = load ptr, ptr %5, align 8, !tbaa !18
  %9 = call i32 @evp_keymgmt_has_load(ptr noundef %8)
  %10 = icmp ne i32 %9, 0
  br i1 %10, label %11, label %18

11:                                               ; preds = %3
  %12 = load ptr, ptr %5, align 8, !tbaa !18
  %13 = getelementptr inbounds nuw %struct.evp_keymgmt_st, ptr %12, i32 0, i32 21
  %14 = load ptr, ptr %13, align 8, !tbaa !38
  %15 = load ptr, ptr %6, align 8, !tbaa !58
  %16 = load i64, ptr %7, align 8, !tbaa !65
  %17 = call ptr %14(ptr noundef %15, i64 noundef %16)
  store ptr %17, ptr %4, align 8
  br label %19

18:                                               ; preds = %3
  store ptr null, ptr %4, align 8
  br label %19

19:                                               ; preds = %18, %11
  %20 = load ptr, ptr %4, align 8
  ret ptr %20
}