; Function Attrs: nounwind uwtable
define ptr @evp_keymgmt_load(ptr noundef readonly captures(address_is_null) %0, ptr noundef %1, i64 noundef %2) local_unnamed_addr #0 {
  %.not.i = icmp eq ptr %0, null
  br i1 %.not.i, label %evp_keymgmt_has_load.exit.thread, label %evp_keymgmt_has_load.exit

evp_keymgmt_has_load.exit:                        ; preds = %3
  %4 = getelementptr inbounds nuw i8, ptr %0, i64 160
  %5 = load ptr, ptr %4, align 8, !tbaa !33
  %.not5 = icmp eq ptr %5, null
  br i1 %.not5, label %evp_keymgmt_has_load.exit.thread, label %6

6:                                                ; preds = %evp_keymgmt_has_load.exit
  %7 = tail call ptr %5(ptr noundef %1, i64 noundef %2) #5
  br label %evp_keymgmt_has_load.exit.thread

evp_keymgmt_has_load.exit.thread:                 ; preds = %3, %evp_keymgmt_has_load.exit, %6
  %.0 = phi ptr [ %7, %6 ], [ null, %evp_keymgmt_has_load.exit ], [ null, %3 ]
  ret ptr %.0
}